; Function Attrs: mustprogress uwtable
define internal fastcc noundef ptr @_ZL27mk_special_solver_for_logicR11ast_managerRK10params_refRK6symbol(ptr noundef nonnull align 8 dereferenceable(976) %m, ptr noundef nonnull align 8 dereferenceable(8) %p, ptr noundef nonnull align 8 dereferenceable(8) %logic) unnamed_addr #3 personality ptr @__gxx_personality_v0 {
entry:
  %ref.tmp.i26 = alloca %"class.std::__cxx11::basic_string", align 8
  %ref.tmp.i8 = alloca %"class.std::__cxx11::basic_string", align 8
  %ref.tmp.i = alloca %"class.std::__cxx11::basic_string", align 8
  %pp = alloca %struct.parallel_params, align 8
  store ptr %p, ptr %pp, align 8
  %g.i = getelementptr inbounds i8, ptr %pp, i64 8
  call void @_ZN7gparams10get_moduleEPKc(ptr nonnull sret(%class.params_ref) align 8 %g.i, ptr noundef nonnull @.str.34)
  call void @llvm.lifetime.start.p0(i64 32, ptr nonnull %ref.tmp.i)
  %0 = load ptr, ptr %logic, align 8
  %cmp.i = icmp eq ptr %0, null
  br i1 %cmp.i, label %lor.lhs.false.thread, label %if.end6.i

lor.lhs.false.thread:                             ; preds = %entry
  call void @llvm.lifetime.end.p0(i64 32, ptr nonnull %ref.tmp.i)
  call void @llvm.lifetime.start.p0(i64 32, ptr nonnull %ref.tmp.i8)
  br label %invoke.cont1.thread

if.end6.i:                                        ; preds = %entry
  %1 = ptrtoint ptr %0 to i64
  %and.i.i = and i64 %1, 7
  %cmp.i.i = icmp eq i64 %and.i.i, 1
  br i1 %cmp.i.i, label %if.end11.i, label %invoke.cont

if.end11.i:                                       ; preds = %if.end6.i
  invoke void @_ZNK6symbol3strB5cxx11Ev(ptr nonnull sret(%"class.std::__cxx11::basic_string") align 8 %ref.tmp.i, ptr noundef nonnull align 8 dereferenceable(8) %logic)
          to label %.noexc unwind label %lpad

.noexc:                                           ; preds = %if.end11.i
  %call.i.i = call noundef i32 @_ZNKSt7__cxx1112basic_stringIcSt11char_traitsIcESaIcEE7compareEPKc(ptr noundef nonnull align 8 dereferenceable(32) %ref.tmp.i, ptr noundef nonnull @.str.25) #11
  %cmp.i9.i = icmp eq i32 %call.i.i, 0
  call void @_ZNSt7__cxx1112basic_stringIcSt11char_traitsIcESaIcEED1Ev(ptr noundef nonnull align 8 dereferenceable(32) %ref.tmp.i) #11
  call void @llvm.lifetime.end.p0(i64 32, ptr nonnull %ref.tmp.i)
  br i1 %cmp.i9.i, label %land.lhs.true, label %lor.lhs.false

invoke.cont:                                      ; preds = %if.end6.i
  %call9.i = call i32 @strcmp(ptr noundef nonnull dereferenceable(1) %0, ptr noundef nonnull dereferenceable(6) @.str.25) #12
  %cmp10.i = icmp eq i32 %call9.i, 0
  call void @llvm.lifetime.end.p0(i64 32, ptr nonnull %ref.tmp.i)
  br i1 %cmp10.i, label %land.lhs.true, label %lor.lhs.false.thread51

lor.lhs.false.thread51:                           ; preds = %invoke.cont
  call void @llvm.lifetime.start.p0(i64 32, ptr nonnull %ref.tmp.i8)
  br label %if.end6.i10

lor.lhs.false:                                    ; preds = %.noexc
  %.pr.pre = load ptr, ptr %logic, align 8
  call void @llvm.lifetime.start.p0(i64 32, ptr nonnull %ref.tmp.i8)
  %cmp.i9 = icmp eq ptr %.pr.pre, null
  br i1 %cmp.i9, label %invoke.cont1.thread, label %if.end6.i10

if.end6.i10:                                      ; preds = %lor.lhs.false.thread51, %lor.lhs.false
  %.pr54 = phi ptr [ %0, %lor.lhs.false.thread51 ], [ %.pr.pre, %lor.lhs.false ]
  %2 = ptrtoint ptr %.pr54 to i64
  %and.i.i11 = and i64 %2, 7
  %cmp.i.i12 = icmp eq i64 %and.i.i11, 1
  br i1 %cmp.i.i12, label %if.end11.i17, label %invoke.cont1

if.end11.i17:                                     ; preds = %if.end6.i10
  invoke void @_ZNK6symbol3strB5cxx11Ev(ptr nonnull sret(%"class.std::__cxx11::basic_string") align 8 %ref.tmp.i8, ptr noundef nonnull align 8 dereferenceable(8) %logic)
          to label %.noexc20 unwind label %lpad

.noexc20:                                         ; preds = %if.end11.i17
  %call.i.i18 = call noundef i32 @_ZNKSt7__cxx1112basic_stringIcSt11char_traitsIcESaIcEE7compareEPKc(ptr noundef nonnull align 8 dereferenceable(32) %ref.tmp.i8, ptr noundef nonnull @.str.26) #11
  %cmp.i9.i19 = icmp eq i32 %call.i.i18, 0
  call void @_ZNSt7__cxx1112basic_stringIcSt11char_traitsIcESaIcEED1Ev(ptr noundef nonnull align 8 dereferenceable(32) %ref.tmp.i8) #11
  call void @llvm.lifetime.end.p0(i64 32, ptr nonnull %ref.tmp.i8)
  br i1 %cmp.i9.i19, label %land.lhs.true, label %if.end

invoke.cont1.thread:                              ; preds = %lor.lhs.false, %lor.lhs.false.thread
  call void @llvm.lifetime.end.p0(i64 32, ptr nonnull %ref.tmp.i8)
  br label %if.end

invoke.cont1:                                     ; preds = %if.end6.i10
  %call9.i14 = call i32 @strcmp(ptr noundef nonnull dereferenceable(1) %.pr54, ptr noundef nonnull dereferenceable(4) @.str.26) #12
  %cmp10.i15 = icmp eq i32 %call9.i14, 0
  call void @llvm.lifetime.end.p0(i64 32, ptr nonnull %ref.tmp.i8)
  br i1 %cmp10.i15, label %land.lhs.true, label %if.end

land.lhs.true:                                    ; preds = %.noexc20, %.noexc, %invoke.cont1, %invoke.cont
  %m_proof_mode.i = getelementptr inbounds i8, ptr %m, i64 712
  %3 = load i32, ptr %m_proof_mode.i, align 8
  %cmp.i22.not = icmp eq i32 %3, 0
  br i1 %cmp.i22.not, label %land.lhs.true4, label %if.end

land.lhs.true4:                                   ; preds = %land.lhs.true
  %4 = load ptr, ptr %pp, align 8
  %call.i24 = invoke noundef zeroext i1 @_ZNK10params_ref8get_boolEPKcRKS_b(ptr noundef nonnull align 8 dereferenceable(8) %4, ptr noundef nonnull @.str.35, ptr noundef nonnull align 8 dereferenceable(8) %g.i, i1 noundef zeroext false)
          to label %invoke.cont5 unwind label %lpad

invoke.cont5:                                     ; preds = %land.lhs.true4
  br i1 %call.i24, label %if.end, label %if.then

if.then:                                          ; preds = %invoke.cont5
  %call8 = invoke noundef ptr @_Z12mk_fd_solverR11ast_managerRK10params_refb(ptr noundef nonnull align 8 dereferenceable(976) %m, ptr noundef nonnull align 8 dereferenceable(8) %p, i1 noundef zeroext true)
          to label %cleanup unwind label %lpad

lpad:                                             ; preds = %land.lhs.true13, %if.end11.i35, %land.lhs.true4, %if.end11.i17, %if.end11.i, %if.then16, %if.then
  %5 = landingpad { ptr, i32 }
          cleanup
  call void @_ZN10params_refD1Ev(ptr noundef nonnull align 8 dereferenceable(8) %g.i) #11
  resume { ptr, i32 } %5

if.end:                                           ; preds = %.noexc20, %invoke.cont1.thread, %invoke.cont5, %land.lhs.true, %invoke.cont1
  call void @llvm.lifetime.start.p0(i64 32, ptr nonnull %ref.tmp.i26)
  %6 = load ptr, ptr %logic, align 8
  %cmp.i27 = icmp eq ptr %6, null
  br i1 %cmp.i27, label %invoke.cont9.thread, label %if.end6.i28

invoke.cont9.thread:                              ; preds = %if.end
  call void @llvm.lifetime.end.p0(i64 32, ptr nonnull %ref.tmp.i26)
  br label %cleanup

if.end6.i28:                                      ; preds = %if.end
  %7 = ptrtoint ptr %6 to i64
  %and.i.i29 = and i64 %7, 7
  %cmp.i.i30 = icmp eq i64 %and.i.i29, 1
  br i1 %cmp.i.i30, label %if.end11.i35, label %invoke.cont9

if.end11.i35:                                     ; preds = %if.end6.i28
  invoke void @_ZNK6symbol3strB5cxx11Ev(ptr nonnull sret(%"class.std::__cxx11::basic_string") align 8 %ref.tmp.i26, ptr noundef nonnull align 8 dereferenceable(8) %logic)
          to label %.noexc38 unwind label %lpad

.noexc38:                                         ; preds = %if.end11.i35
  %call.i.i36 = call noundef i32 @_ZNKSt7__cxx1112basic_stringIcSt11char_traitsIcESaIcEE7compareEPKc(ptr noundef nonnull align 8 dereferenceable(32) %ref.tmp.i26, ptr noundef nonnull @.str.33) #11
  %cmp.i9.i37 = icmp eq i32 %call.i.i36, 0
  call void @_ZNSt7__cxx1112basic_stringIcSt11char_traitsIcESaIcEED1Ev(ptr noundef nonnull align 8 dereferenceable(32) %ref.tmp.i26) #11
  call void @llvm.lifetime.end.p0(i64 32, ptr nonnull %ref.tmp.i26)
  br i1 %cmp.i9.i37, label %land.lhs.true11, label %cleanup

invoke.cont9:                                     ; preds = %if.end6.i28
  %call9.i32 = call i32 @strcmp(ptr noundef nonnull dereferenceable(1) %6, ptr noundef nonnull dereferenceable(6) @.str.33) #12
  %cmp10.i33 = icmp eq i32 %call9.i32, 0
  call void @llvm.lifetime.end.p0(i64 32, ptr nonnull %ref.tmp.i26)
  br i1 %cmp10.i33, label %land.lhs.true11, label %cleanup

land.lhs.true11:                                  ; preds = %.noexc38, %invoke.cont9
  %m_proof_mode.i40 = getelementptr inbounds i8, ptr %m, i64 712
  %8 = load i32, ptr %m_proof_mode.i40, align 8
  %cmp.i41.not = icmp eq i32 %8, 0
  br i1 %cmp.i41.not, label %land.lhs.true13, label %cleanup

land.lhs.true13:                                  ; preds = %land.lhs.true11
  %9 = load ptr, ptr %pp, align 8
  %call.i43 = invoke noundef zeroext i1 @_ZNK10params_ref8get_boolEPKcRKS_b(ptr noundef nonnull align 8 dereferenceable(8) %9, ptr noundef nonnull @.str.35, ptr noundef nonnull align 8 dereferenceable(8) %g.i, i1 noundef zeroext false)
          to label %invoke.cont14 unwind label %lpad

invoke.cont14:                                    ; preds = %land.lhs.true13
  br i1 %call.i43, label %cleanup, label %if.then16

if.then16:                                        ; preds = %invoke.cont14
  %call18 = invoke noundef ptr @_Z15mk_smtfd_solverR11ast_managerRK10params_ref(ptr noundef nonnull align 8 dereferenceable(976) %m, ptr noundef nonnull align 8 dereferenceable(8) %p)
          to label %cleanup unwind label %lpad

cleanup:                                          ; preds = %.noexc38, %invoke.cont9.thread, %invoke.cont9, %land.lhs.true11, %invoke.cont14, %if.then16, %if.then
  %retval.0 = phi ptr [ %call8, %if.then ], [ %call18, %if.then16 ], [ null, %invoke.cont14 ], [ null, %land.lhs.true11 ], [ null, %invoke.cont9 ], [ null, %invoke.cont9.thread ], [ null, %.noexc38 ]
  call void @_ZN10params_refD1Ev(ptr noundef nonnull align 8 dereferenceable(8) %g.i) #11
  ret ptr %retval.0
}